target datalayout = "e-m:e-p270:32:32-p271:32:32-p272:64:64-i64:64-i128:128-f80:128-n8:16:32:64-S128"
target triple = "x86_64-pc-linux-gnu"

; Function Attrs: mustprogress uwtable
define ptr @zmq_socket(ptr noundef %0, i32 noundef %1) #1 {
  %3 = alloca ptr, align 8
  %4 = alloca ptr, align 8
  %5 = alloca i32, align 4
  %6 = alloca ptr, align 8
  %7 = alloca ptr, align 8
  store ptr %0, ptr %4, align 8, !tbaa !12
  store i32 %1, ptr %5, align 4, !tbaa !8
  %8 = load ptr, ptr %4, align 8, !tbaa !12
  %9 = icmp ne ptr %8, null
  br i1 %9, label %10, label %13

10:                                               ; preds = %2
  %11 = load ptr, ptr %4, align 8, !tbaa !12
  %12 = call noundef zeroext i1 @_ZNK3zmq5ctx_t9check_tagEv(ptr noundef nonnull align 8 dereferenceable(648) %11)
  br i1 %12, label %15, label %13

13:                                               ; preds = %10, %2
  %14 = call ptr @__errno_location() #19
  store i32 14, ptr %14, align 4, !tbaa !8
  store ptr null, ptr %3, align 8
  br label %21

15:                                               ; preds = %10
  call void @llvm.lifetime.start.p0(i64 8, ptr %6) #20
  %16 = load ptr, ptr %4, align 8, !tbaa !12
  store ptr %16, ptr %6, align 8, !tbaa !10
  call void @llvm.lifetime.start.p0(i64 8, ptr %7) #20
  %17 = load ptr, ptr %6, align 8, !tbaa !10
  %18 = load i32, ptr %5, align 4, !tbaa !8
  %19 = call noundef ptr @_ZN3zmq5ctx_t13create_socketEi(ptr noundef nonnull align 8 dereferenceable(648) %17, i32 noundef %18)
  store ptr %19, ptr %7, align 8, !tbaa !17
  %20 = load ptr, ptr %7, align 8, !tbaa !17
  store ptr %20, ptr %3, align 8
  call void @llvm.lifetime.end.p0(i64 8, ptr %7) #20
  call void @llvm.lifetime.end.p0(i64 8, ptr %6) #20
  br label %21

21:                                               ; preds = %15, %13
  %22 = load ptr, ptr %3, align 8
  ret ptr %22
}